(lp0
(lp1
F0.01
aF0.01
aa(lp2
F0.01
aF0.01
aa(lp3
F0.010000000000000009
aF0.010000000000000009
aa(lp4
F0.010000000000000009
aF0.010000000000000009
aa(lp5
F0.010000000003028364
aF0.010000000001550435
aa(lp6
F0.010000000000227383
aF0.010000000000147446
aa(lp7
F0.010000000000579545
aF0.0100000000001923
aa(lp8
F0.010000000000000009
aF0.010000000000000009
aa(lp9
F0.010000000000003258
aF0.010000000000000009
aa(lp10
F0.01
aF0.01
aa.