(dp0
S'y'
p1
(lp2
F28.527223289400304
aF19.236405681741946
aF162.23822374911924
aF66.9311804692947
aF35.357291710697794
aF19.567131408077156
aF19.912655724811444
aF19.685604780919668
aF19.560135139060044
aF19.57440211001578
aF19.492034748908257
aF18.91831180292226
aF18.775598124330987
aF19.48600683517281
aF19.385196283977326
aF19.21829533316098
aF19.772524693423875
aF19.505606915948043
aF17.63915365678001
aF18.279989590979486
aF17.373392772874556
aF17.970242815751764
aF18.303581284811436
aF16.070860419609318
aF16.333852278368802
aF15.544090488605804
aF14.360074644575253
aF14.589109173270364
aF13.562004375479633
aF12.628824847397645
aF12.668758560979484
aF13.246778109860967
aF11.113711168096085
aF11.330857472370923
aF11.616474300758089
aF9.907569304638166
aF9.692098768072295
aF10.716663170884503
aF8.931554236657805
aF8.692869312695144
aF9.728209940058754
aF8.927746856555585
aF9.52004258677913
aF7.654431175481393
aF7.748495316796587
aF8.045889056023917
aF7.204757087976194
aF6.515435607162356
aF6.8371338431737065
aF6.142093227409806
aF6.651051023681608
aF5.5486771863074305
aF5.767926400203079
aF6.526126456650017
aF5.118601044977509
aF4.723597035505525
aF4.843412441566437
aF4.348117504214009
aF3.9861128090209528
aF4.032361138675319
aF3.5793753097034626
aF3.3763683747286217
aF3.6501572918804026
aF3.8202137894381343
aF4.529954215370912
aF4.4498677311357095
aF3.8512476094732193
aF3.2794195698352464
aF2.8684930621636155
aF2.830943369382819
aF3.0451581913148527
aF2.587364506509246
aF3.002314207787319
aF3.5524534144401683
aF2.360687468463186
aF2.776855207024915
aF2.207546873608531
aF2.2430988277006003
aF3.103359379859489
aF2.4547787519802373
aF2.33975527826664
aF1.9621282046716324
aF1.8527198973686225
aF1.9654205697182014
aF2.248154604564535
aF1.9980520501601422
aF1.6840400378833777
aF1.5875339870728418
aF1.6724936117354439
aF1.7451921019803152
aF1.9193359382179853
aF1.4880208407819957
aF1.8655436924412605
aF2.3830488277255837
aF2.4521252905267836
aF2.022991113350173
aF1.4841561658509956
aF1.3877420568808034
aF2.1412701600819837
aF1.6894921923328177
aF1.5946769279570816
aF1.6431522812574961
aF2.7715241474507497
aF1.2604239738296865
aF1.3932022197675593
aF2.015725486718849
aF1.3074667027023228
aF1.6660145051083184
aF1.2554913623714778
aF3.220442655870989
aF1.117591288513779
aF1.1979721634840974
aF1.6880148000801682
aF1.5375002418927224
aF1.1832324059093313
aF1.1347159423519422
aF1.0098557008457174
aF1.7993598893192573
aF1.0762580993530158
aF1.006713596258507
aF1.329974414275016
aF1.6015548675307496
aF1.3402827147205922
aF1.0484794478951258
aF1.9443178722611698
aF1.5036201866109895
aF0.9176270680436431
aF1.0967482809963265
aF1.8142550141127103
aF0.937110184216257
aF0.9148776502145477
aF0.8100781374403923
aF0.8427754946531163
aF1.0407154565986474
aF0.8428204168538986
aF1.281188610802893
aF1.8551867816918435
aF1.455010405698502
aF1.833542006915133
aF1.5439262286026842
aF2.4397010958724064
aF0.8572446089818957
aF0.8589791583901487
aF1.2084869872896462
aF0.9162906755839337
aF1.425646866822655
aF0.745624756405725
aF1.0443981181751827
aF0.7604746176554347
aF1.4269295637576036
aF0.9289996908914304
aF3.5418797833365963
aF0.9920292326473596
aF0.8180736078188087
aF0.7706313741491382
aF0.8759489994945948
aF0.6803069045302053
aF0.9248933864573043
aF0.6958356139278212
aF0.7078973862974465
aF0.9889801860634684
aF0.9052863243169718
aF1.1141689638453904
aF4.203932519652276
aF1.0883206164475272
aF1.290561838680878
aF3.8357876024326005
aF2.242252388633962
aF1.9304514812170215
aF0.7928521719129922
aF1.1494167307705894
aF0.723500990554248
aF1.4842172985367643
aF0.6366098445559878
aF0.6228722067734402
aF0.6895505520783658
aF1.4902568195986206
aF0.7313352486098506
aF0.7697354348088616
aF1.9829114095888425
aF0.7469428379675254
aF0.9411120473422514
aF0.8200132022748541
aF0.6532780596036165
aF0.7395009902134966
aF0.588317601698165
aF1.3565513525552362
aF0.6627167133473435
aF1.800003386221631
aF0.629299432706997
aF0.6934225480601128
aF0.812336841187328
aF0.6829600598015251
aF0.9215948461245365
aF0.8676633892406347
aF1.6933213417445252
aF0.8922033656506194
aF0.9319072523289691
aF0.8012993469982295
aF1.025323783157921
aF0.562653620075892
aF0.8335947730459505
aF0.7146338907178453
aF0.6040044500922939
aF0.6907030598898594
aF0.6930629107803981
aF0.6891436599995302
aF0.8165220084193621
aF0.9557936789804291
aF0.6825444437588395
aF0.8067408683733888
aF0.747599901370025
aF0.6377333903007525
aF0.5496578914340251
aF0.7420045848078214
aF0.6462149940910553
aF0.7390010193556265
aF0.8676416219765333
aF1.1072398028379702
aF0.7113990912442247
aF0.6938212318888279
aF0.9960251635973574
aF0.8407067429633148
aF0.5771557452682607
aF0.7900071792157846
aF0.6318698141200443
aF0.5480446413043953
aF1.1858611061413313
aF0.6536157053813003
aF0.5203524573767453
aF0.8891701535786432
aF0.7065345451065106
aF0.5339427740860518
aF0.5728132701602995
aF0.74239129860646
aF0.5857240835924742
aF0.5921659507777228
aF0.800778936771728
aF0.5859630449818827
aF0.6808846748789907
aF0.6659625047722848
aF0.7465492485488454
aF0.7587054412287753
aF0.9632963965513444
aF0.663083731444063
aF1.1331647216120473
aF1.1194928881496988
aF0.5873176232714918
asS'X'
p3
(lp4
(lp5
F-0.06308804647526145
aF3.1102241163221533
aa(lp6
F6.579914766243011
aF0.7789325252206433
aa(lp7
F7.1684625072393295
aF13.188897575214966
aa(lp8
F2.9312642082137463
aF10.566789589010993
aa(lp9
F-3.0847001551783055
aF6.203255186412885
aa(lp10
F6.156158283259041
aF0.7961702521743995
aa(lp11
F6.361126515167011
aF0.41793670809682376
aa(lp12
F6.360868953675955
aF0.6654275528628248
aa(lp13
F6.385385512595285
aF1.091463476815023
aa(lp14
F6.376370004627443
aF0.8829949654562846
aa(lp15
F6.000061365687742
aF0.48841778970958394
aa(lp16
F5.903513552201268
aF1.0173842201361825
aa(lp17
F5.8445855611189055
aF0.7373929468575514
aa(lp18
F6.126435428018958
aF1.0433278820307568
aa(lp19
F6.021605528203372
aF0.6774226655304738
aa(lp20
F6.653613346693242
aF0.5002034855376819
aa(lp21
F6.196175303795082
aF0.5462757933852863
aa(lp22
F6.080622298420248
aF1.3211357388726461
aa(lp23
F5.631460513312645
aF0.9823690517445329
aa(lp24
F5.743992804957665
aF1.2372967748045114
aa(lp25
F5.565514618456854
aF0.6914124269983462
aa(lp26
F5.682216691148252
aF0.8209473020714673
aa(lp27
F5.696765606483438
aF0.49063473242241046
aa(lp28
F5.391879494512101
aF0.9084596912172226
aa(lp29
F5.432316695543974
aF1.1454349589575332
aa(lp30
F5.303488793719427
aF0.682155095752693
aa(lp31
F5.177497132861446
aF0.9238823456958408
aa(lp32
F5.210427609048965
aF1.0994075757065565
aa(lp33
F5.071876810801322
aF0.7568438116112386
aa(lp34
F4.982587498198838
aF0.9577179856781004
aa(lp35
F4.993487867525487
aF1.1398001128371533
aa(lp36
F5.054721889660225
aF1.0378755862881248
aa(lp37
F4.821029506237522
aF1.0013549765517016
aa(lp38
F4.830802982830368
aF0.823890535517661
aa(lp39
F4.869122446812167
aF0.9102387138313331
aa(lp40
F4.685680536690924
aF0.9182527310557634
aa(lp41
F4.6750005690525525
aF1.1016709993214886
aa(lp42
F4.785864655066786
aF1.1754309284914133
aa(lp43
F4.58746292987889
aF1.0064254351718156
aa(lp44
F4.54375132314396
aF0.8314008218174517
aa(lp45
F4.6444103121848785
aF0.7233299464593408
aa(lp46
F4.578069436510089
aF0.9060348194058175
aa(lp47
F4.633817812042243
aF0.8213658140372655
aa(lp48
F4.442529908665338
aF0.9661580411535104
aa(lp49
F4.465378509248893
aF1.1082325383171039
aa(lp50
F4.4923027813637955
aF1.0291602043204138
aa(lp51
F4.375338201617475
aF0.8443714264488189
aa(lp52
F4.312785485885218
aF0.9905552659639997
aa(lp53
F4.358612502089847
aF1.0644946033292229
aa(lp54
F4.25326350966903
aF0.8914757123569174
aa(lp55
F4.319279746048303
aF0.9146745966152647
aa(lp56
F4.197346479967712
aF1.0233822905472092
aa(lp57
F4.237902830395305
aF1.1361649140964574
aa(lp58
F4.3352524673296395
aF1.2311766746803519
aa(lp59
F4.127583033548157
aF0.9409459319594815
aa(lp60
F4.096169360303626
aF1.0831138316871085
aa(lp61
F4.125549064775638
aF1.1890961608219266
aa(lp62
F4.029476394448547
aF1.004869019337111
aa(lp63
F3.996320607574281
aF1.1246124154481114
aa(lp64
F4.0170881902420765
aF1.2218568014009916
aa(lp65
F3.918176682577215
aF1.053662426026419
aa(lp66
F3.9053695415775294
aF1.1581535859593222
aa(lp67
F3.9526622160329574
aF1.1747041119819592
aa(lp68
F3.9257471464918896
aF0.917501338376179
aa(lp69
F4.022342911057366
aF0.845870639001821
aa(lp70
F4.086648848062269
aF1.33940394314653
aa(lp71
F3.9474396835953454
aF0.9833615006298508
aa(lp72
F3.908922216533074
aF1.2772532469091786
aa(lp73
F3.80162139592392
aF1.10620545796186
aa(lp74
F3.8172725796637117
aF1.2015399452459634
aa(lp75
F3.8609591490529978
aF1.225311862905984
aa(lp76
F3.7911973384168083
aF1.3030318784357324
aa(lp77
F3.8763119317002
aF1.37695626227782
aa(lp78
F3.960127378779568
aF1.346592073680588
aa(lp79
F3.719961840728371
aF1.1988162092169057
aa(lp80
F3.748805117701617
aF0.9995453505494151
aa(lp81
F3.706870410357518
aF1.2785389607661017
aa(lp82
F3.7351171838982
aF1.3717415405017848
aa(lp83
F3.820923365659959
aF1.010398256954903
aa(lp84
F3.7522093907499703
aF1.2440900457714488
aa(lp85
F3.6826606786892477
aF1.101331864577961
aa(lp86
F3.6239921822872456
aF1.2111289113959045
aa(lp87
F3.62654767455527
aF1.3042358526111288
aa(lp88
F3.586075621305245
aF1.1247423635182057
aa(lp89
F3.620771783791426
aF1.0209402248479245
aa(lp90
F3.6718933909924782
aF1.333180708370396
aa(lp91
F3.5456998779149687
aF1.2330462476366295
aa(lp92
F3.5507269032752484
aF1.3154297414451435
aa(lp93
F3.605683973837865
aF1.3990673201191937
aa(lp94
F3.5808617026466294
aF1.2647983005825814
aa(lp95
F3.678988649488531
aF1.4490779317277027
aa(lp96
F3.543186533548114
aF1.3797251073631644
aa(lp97
F3.652037541653089
aF1.383192768124736
aa(lp98
F3.778356320261
aF1.4731042993377035
aa(lp99
F3.7829637101181097
aF1.4095213309215324
aa(lp100
F3.693984428353968
aF1.4052196490503088
aa(lp101
F3.5712291966274488
aF1.469313462547726
aa(lp102
F3.4601517145168166
aF1.2974873243086351
aa(lp103
F3.617254378470283
aF1.0770615618569321
aa(lp104
F3.638931742821258
aF1.5272854034282757
aa(lp105
F3.469053121094566
aF1.1744102655133233
aa(lp106
F3.5812817762661036
aF1.3484399676497443
aa(lp107
F3.8549226844909623
aF1.5664695779125706
aa(lp108
F3.4615245905872274
aF1.3957566384512994
aa(lp109
F3.4916426934428015
aF1.3443074711161724
aa(lp110
F3.7151439623136655
aF1.550112379135687
aa(lp111
F3.5046370119227004
aF1.4451431759171438
aa(lp112
F3.620733876985862
aF1.4655327043747288
aa(lp113
F3.5156180806061914
aF1.5299033291592927
aa(lp114
F3.9208026682233723
aF1.478684701359888
aa(lp115
F3.435492122362129
aF1.4721024993729037
aa(lp116
F3.4777365856234357
aF1.4842837596577756
aa(lp117
F3.618541539932849
aF1.431795877872118
aa(lp118
F3.5802272643883652
aF1.445101149240413
aa(lp119
F3.3847682904644416
aF1.3548686764576443
aa(lp120
F3.403236749628117
aF1.4101243808186175
aa(lp121
F3.358777262903016
aF1.4615369563671963
aa(lp122
F3.4851128162067546
aF1.07481050300969
aa(lp123
F3.4471987454402804
aF1.5354635599370732
aa(lp124
F3.3903824094504613
aF1.5002265971770188
aa(lp125
F3.5572708322767044
aF1.6028717082639021
aa(lp126
F3.630907338705588
aF1.613614479666377
aa(lp127
F3.377544198501382
aF1.2468858809278767
aa(lp128
F3.4613103440930844
aF1.6035572944024192
aa(lp129
F3.7114098044266695
aF1.6665240633767873
aa(lp130
F3.3809048990297894
aF1.1546281410422745
aa(lp131
F3.3794231806779154
aF1.5684511410219018
aa(lp132
F3.295900666819853
aF1.3655188500798354
aa(lp133
F3.648988522133732
aF1.4242738971218383
aa(lp134
F3.2920017828428043
aF1.476809527508255
aa(lp135
F3.3353383664860403
aF1.5197714787566388
aa(lp136
F3.2999059137635576
aF1.5867181758972106
aa(lp137
F3.373579352547031
aF1.6390067356462312
aa(lp138
F3.480266002421299
aF1.6829420237536474
aa(lp139
F3.338406710623653
aF1.588816006430705
aa(lp140
F3.556344516862572
aF1.6786804278772427
aa(lp141
F3.6867551760753323
aF1.5980681449416358
aa(lp142
F3.6083848612183904
aF1.7333490502123534
aa(lp143
F3.6937132311054715
aF1.7548139200554882
aa(lp144
F3.624105551442837
aF1.6723960580969623
aa(lp145
F3.804649012144289
aF1.6927934478722648
aa(lp146
F3.2700952436274244
aF1.5332393379802163
aa(lp147
F3.310383853060711
aF1.5495238151122486
aa(lp148
F3.322172260561112
aF1.3014379566957388
aa(lp149
F3.3590650897110708
aF1.5423437377144777
aa(lp150
F3.5718118319675423
aF1.540237884099628
aa(lp151
F3.309478527993735
aF1.6587394944214349
aa(lp152
F3.3244775548583156
aF1.4112932539556673
aa(lp153
F3.2535799861392465
aF1.6125268250101126
aa(lp154
F3.4323793151430237
aF1.2381496997749901
aa(lp155
F3.4083262739868294
aF1.6090835032636508
aa(lp156
F3.9746524875376523
aF1.6549296955979933
aa(lp157
F3.220004076939575
aF1.4369566119550892
aa(lp158
F3.3909074923557414
aF1.7083253894187274
aa(lp159
F3.347832838241884
aF1.6798616772298438
aa(lp160
F3.2085915487122523
aF1.5215909866380342
aa(lp161
F3.3023759311668863
aF1.7271141719651004
aa(lp162
F3.4547737540262506
aF1.768367589359547
aa(lp163
F3.2533418838239365
aF1.674745023638873
aa(lp164
F3.1962403398024994
aF1.6631301259595443
aa(lp165
F3.418713279701909
aF1.5651277333476175
aa(lp166
F3.4331488600638966
aF1.7091158649682952
aa(lp167
F3.5172186020886933
aF1.7526121640594639
aa(lp168
F4.062956099955275
aF1.521048925526708
aa(lp169
F3.5181953972355324
aF1.835941685957456
aa(lp170
F3.5714737868517403
aF1.7933703803779764
aa(lp171
F4.007855237645769
aF1.421445236882643
aa(lp172
F3.764760849444731
aF1.6045614372753607
aa(lp173
F3.689531194633746
aF1.4958762700713915
aa(lp174
F3.195746827675201
aF1.59011540350573
aa(lp175
F3.4897260378673463
aF1.5693754424908444
aa(lp176
F3.3622571280293396
aF1.7759635154080682
aa(lp177
F3.6213718300292776
aF1.850225827605003
aa(lp178
F3.244054952775808
aF1.7357851777949138
aa(lp179
F3.290495400241639
aF1.7897396426359027
aa(lp180
F3.3274711158409382
aF1.751127834526916
aa(lp181
F3.59723376876099
aF1.5779187558878867
aa(lp182
F3.223885052281218
aF1.6367793761170104
aa(lp183
F3.4020010971168313
aF1.8320179977809667
aa(lp184
F3.7243468178624934
aF1.8432923207840486
aa(lp185
F3.27849141569386
aF1.6342984572046169
aa(lp186
F3.1376575389784844
aF1.5161460822463555
aa(lp187
F3.1343518265198513
aF1.6062503255859706
aa(lp188
F3.1803866243966072
aF1.7211565694123694
aa(lp189
F3.1464959516539803
aF1.6617226475935787
aa(lp190
F3.225148096495729
aF1.788247598531838
aa(lp191
F3.5049161778968276
aF1.4015337287983576
aa(lp192
F3.2143751410308625
aF1.7034590879294813
aa(lp193
F3.684991914089811
aF1.7171712391073728
aa(lp194
F3.3232842846716277
aF1.8387525259340325
aa(lp195
F3.3764202064128606
aF1.89122819662276
aa(lp196
F3.23311250929224
aF1.5664600615037858
aa(lp197
F3.2778926082536812
aF1.7011493807363085
aa(lp198
F3.2411047115416944
aF1.481989987800182
aa(lp199
F3.4478347220943877
aF1.8664522556398766
aa(lp200
F3.646267611898277
aF1.5670344877468037
aa(lp201
F3.450543725418322
aF1.817022400793613
aa(lp202
F3.4288091096670095
aF1.6568148028919503
aa(lp203
F3.33366771948903
aF1.6255559402393733
aa(lp204
F3.1545071468642862
aF1.4481408518596308
aa(lp205
F3.2575052529621047
aF1.8427078805770112
aa(lp206
F3.1528376767981507
aF1.5814461598988583
aa(lp207
F3.2790351057070692
aF1.667419433461345
aa(lp208
F3.168845410455403
aF1.7783497841582598
aa(lp209
F3.126077144358262
aF1.722321821249544
aa(lp210
F3.1586276494853585
aF1.6944637943479925
aa(lp211
F3.223370210427587
aF1.6766862053013092
aa(lp212
F3.088156498111292
aF1.6565445715167406
aa(lp213
F3.0788647664939424
aF1.5662348610115595
aa(lp214
F3.360277169577478
aF1.8454531806011873
aa(lp215
F3.113451794758178
aF1.6360573065247532
aa(lp216
F3.0983785652252602
aF1.7008888072646278
aa(lp217
F3.116154080125856
aF1.7837666662016136
aa(lp218
F3.1874477941935657
aF1.8373756946905875
aa(lp219
F3.1197698643984224
aF1.6827632819965685
aa(lp220
F3.14392135046651
aF1.7498488620489376
aa(lp221
F3.066157962863237
aF1.7505651760102823
aa(lp222
F3.0391406484417076
aF1.6852436663133188
aa(lp223
F3.0709498571083675
aF1.4789569834003453
aa(lp224
F3.26168177433453
aF1.6619378501097974
aa(lp225
F3.1819480289468727
aF1.6813279566932462
aa(lp226
F3.0262420506339707
aF1.6125016146100841
aa(lp227
F3.3891087587772333
aF1.6732550608973438
aa(lp228
F3.1498213102388215
aF1.8204435088754223
aa(lp229
F3.0643154080992443
aF1.709372461737061
aa(lp230
F3.087142134011781
aF1.8249292325662132
aa(lp231
F3.2802552256056905
aF1.9012721778637218
aa(lp232
F3.192442133726167
aF1.3292024973934442
aa(lp233
F3.323422382896449
aF1.797350165111905
aa(lp234
F3.2171741442693786
aF1.8822729088537826
aa(lp235
F3.0028307612549647
aF1.731207405584129
aa(lp236
F3.134629582703747
aF1.7001964653825314
aa(lp237
F3.1435806065244636
aF1.8795873531567309
aa(lp238
F3.1255927705467506
aF1.8459951406177681
aa(lp239
F3.0373596603314796
aF1.7935910085524258
aa(lp240
F3.087170807154897
aF1.8770043840592667
aa(lp241
F3.3104993555892857
aF1.8791343015291202
aa(lp242
F3.0310821800113357
aF1.752702004962272
aa(lp243
F3.325419455258742
aF1.9458429133928457
aa(lp244
F3.0799156984168112
aF1.7850341662766451
aa(lp245
F3.0508673151193983
aF1.8451344699992143
aa(lp246
F3.359740657834266
aF1.7344488786011774
aa(lp247
F3.173707126772585
aF1.6280288518741628
aa(lp248
F3.016722854862793
aF1.6508817972003327
aa(lp249
F3.1538662365833203
aF1.7259825436673681
aa(lp250
F3.0186686564290395
aF1.535593992792975
aa(lp251
F3.4969976181645417
aF1.6345671088757612
aa(lp252
F3.256495775393398
aF1.80511131233781
aas.