(dp0
S'y'
p1
(lp2
F133.8730975591524
aF3.5499903135185056
aF9.998067001208307
aF1.2478447448980141
aF18.371443656009433
aF18.8234098635381
aF19.694484184368406
aF2.6216094409284407
aF9.503735836411755
aF2.5783819469098894
aF0.9940128047347052
aF0.6415945969622445
aF2.512917078582415
aF4.1449904603593275
aF1.982385119423066
aF4.153469811611891
aF3.2123020231472017
aF27.99297747363092
aF0.9719272179608573
aF4.267176397433575
aF3.0434723429668047
aF1.3248650261117128
aF1.1579815597607546
aF0.4399918870063022
aF1.5930236743053285
aF0.5904958594915168
aF1.2595338570569528
aF0.5932421254570013
aF1.2441054249236547
aF3.836748609934112
aF2.2289843432761707
aF0.7641855084864613
aF0.987294732088456
aF2.4547580425286846
aF3.543944755072797
aF0.472965591128947
aF0.7113306078763983
aF1.0595997597737625
aF1.0153477109774354
aF0.6940052463194046
aF0.5191406329792265
aF1.8169115209745677
aF0.9087655066745715
aF0.764016973242617
aF0.6304057204854612
aF0.8605019946322052
aF0.6506721430191895
aF1.9106378653310045
aF0.400008149024881
aF1.4734090739178978
aF1.5357292337280644
aF0.638256000875332
aF0.6864718888085655
aF1.737201592032923
aF1.1208231891854687
aF1.5441153526215974
aF0.4907576982322279
aF1.2956763604405115
aF2.162243654940169
aF0.44844483585417017
aF0.71899001186409
aF1.5016986018191023
aF0.9492932251724788
aF0.4806489732289183
aF1.046851789651651
aF1.635300498952052
aF2.1288293434582597
aF0.4783839153525591
aF0.6199352424072586
aF1.0749407284821029
aF2.216618050995839
aF0.7774078166797675
aF0.9306989238462435
aF0.5367202227807049
aF1.9862500373976566
aF0.7140475087458231
aF0.9864469769391135
aF1.395033171631896
aF1.0887694773185217
aF0.8771452730871712
aF0.8547506754734009
aF0.6807507989872583
aF1.1821326649849535
aF0.7789019841376703
aF0.8608605051805416
aF0.5447191295349096
aF0.7508659022339064
aF0.6091384975422613
aF0.908720908949876
aF0.457383791822382
aF1.1337822626254397
aF1.1889616930371538
aF1.3897772924094731
aF0.6828387387796742
aF0.49707893225717115
aF0.5897909938364982
aF0.8997146045138429
aF0.577991872105379
aF1.7538012389493591
aF2.4271694944652182
asS'X'
p3
(lp4
(lp5
F4.594129220417836
aF12.541933369922697
aa(lp6
F8.604686723916771
aF1.9989805009893118
aa(lp7
F1.7900456128208537
aF5.001349841412416
aa(lp8
F-2.7786712438642422
aF10.926444298068628
aa(lp9
F-0.7835090623128558
aF8.57730454510344
aa(lp10
F-3.7052630987651387
aF9.520072335264203
aa(lp11
F6.667955057330426
aF1.91005914342029
aa(lp12
F9.206172686457508
aF0.6695763609896696
aa(lp13
F10.0
aF0.0
aa(lp14
F9.9611298381854
aF1.801025587320991
aa(lp15
F9.254207265912427
aF1.4420938982006972
aa(lp16
F9.524011872071661
aF2.7734624121369387
aa(lp17
F10.0
aF3.504489002784167
aa(lp18
F8.842461796514602
aF3.300808408516872
aa(lp19
F9.999999999999984
aF2.551551509473123
aa(lp20
F9.428397292610763
aF4.19079812575766
aa(lp21
F-3.475565063088929
aF11.550177184697189
aa(lp22
F-4.637414441004986
aF11.778629947410447
aa(lp23
F-2.7944965068718486
aF11.474215174700193
aa(lp24
F-2.3023270732049745
aF11.161127584458098
aa(lp25
F9.788231128816237
aF1.1352796535859124
aa(lp26
F9.50048207781996
aF3.259376050261336
aa(lp27
F-3.0654447377699006
aF11.213217629104191
aa(lp28
F9.331218870957798
aF2.1661650864172937
aa(lp29
F9.902255357821266
aF3.0069871166313527
aa(lp30
F9.62163882471894
aF2.327022181113455
aa(lp31
F9.089120304660934
aF2.567941553538465
aa(lp32
F9.421022723254927
aF1.805100502936109
aa(lp33
F9.2389493259817
aF2.931664416107753
aa(lp34
F8.666861747539427
aF2.6198865700868703
aa(lp35
F9.478357894998643
aF3.641080288234965
aa(lp36
F-3.074273755167714
aF11.502879158905877
aa(lp37
F9.078451220365643
aF1.8507013955601428
aa(lp38
F8.822352994483746
aF1.2111333054869882
aa(lp39
F9.999999999468452
aF4.014882516187925
aa(lp40
F9.386888889348304
aF2.4811565793592525
aa(lp41
F9.61399374546975
aF2.028192322355544
aa(lp42
F9.0655036963286
aF2.2009889927050184
aa(lp43
F-2.797279199018689
aF11.210889964254786
aa(lp44
F9.66655302239818
aF2.5795544423650143
aa(lp45
F9.288554378548493
aF1.9642293813983114
aa(lp46
F-3.083303087621276
aF10.92691096026365
aa(lp47
F9.596665713021316
aF2.998290593436574
aa(lp48
F-2.9520103545871006
aF11.361402409413321
aa(lp49
F-2.9210772965026686
aF11.731058301190009
aa(lp50
F9.421095591123182
aF2.9271813243223637
aa(lp51
F-3.109223079157574
aF11.67510637259075
aa(lp52
F-2.6436351781135463
aF11.681405396494299
aa(lp53
F9.435815282268702
aF2.297989474716145
aa(lp54
F9.860696891863178
aF2.199587131591618
aa(lp55
F-3.2190450702039524
aF11.38254683390771
aa(lp56
F9.23312172670847
aF2.3562134793983818
aa(lp57
F9.331059244351477
aF2.672967463368332
aa(lp58
F9.253523573385642
aF3.2123556862128524
aa(lp59
F9.547478949319741
aF1.5428620892032603
aa(lp60
F9.285728602180127
aF1.1153707924952994
aa(lp61
F9.509998659836718
aF2.559616848253414
aa(lp62
F9.025583570424946
aF1.574602166265642
aa(lp63
F9.999999999995424
aF3.217738031736393
aa(lp64
F9.443451865671571
aF2.0438086432084948
aa(lp65
F9.265881620261153
aF1.679381712181889
aa(lp66
F9.717868690673235
aF3.327380858847858
aa(lp67
F9.74307719959829
aF2.778961802950229
aa(lp68
F9.533167276443997
aF2.175221150275511
aa(lp69
F-2.9165605251714406
aF11.081328618203322
aa(lp70
F-2.641346768408503
aF11.334051760017884
aa(lp71
F9.999999999989168
aF2.3187375514419313
aa(lp72
F-3.0459030897451873
aF11.831486783866847
aa(lp73
F-2.947980197600434
aF11.586042171461221
aa(lp74
F9.436872667677681
aF3.0820488499295515
aa(lp75
F9.744699378313587
aF3.671463534784128
aa(lp76
F9.400727144975411
aF1.617139914150979
aa(lp77
F9.613049616846618
aF1.8017048207580466
aa(lp78
F-3.0151269969747245
aF11.700813765612548
aa(lp79
F9.736482744271216
aF1.4493822470231972
aa(lp80
F9.167453203058065
aF2.051716220896025
aa(lp81
F9.713301449604032
aF2.927929037678184
aa(lp82
F-2.6843478185593965
aF11.08124247924174
aa(lp83
F-3.2035496264032552
aF11.578361965242882
aa(lp84
F-2.9294383022930175
aF11.235435089960331
aa(lp85
F9.732400793166475
aF2.4286667686809507
aa(lp86
F9.260331517280028
aF2.5141269160188053
aa(lp87
F9.062146542005689
aF2.377815998263017
aa(lp88
F-2.88009025352546
aF11.86796833695635
aa(lp89
F-2.833721963653469
aF11.63421433233514
aa(lp90
F9.473318697601806
aF1.920793147830959
aa(lp91
F9.666786508915658
aF2.179522202081197
aa(lp92
F9.264495136590037
aF1.828765285069719
aa(lp93
F9.133887018356035
aF1.7014580705526834
aa(lp94
F9.326094685268645
aF2.059655898819313
aa(lp95
F9.182818813650432
aF2.74028765977573
aa(lp96
F9.742781769712456
aF1.959415550782104
aa(lp97
F9.103455212782015
aF1.2999586429642993
aa(lp98
F-2.941686024825796
aF11.471671577360947
aa(lp99
F9.37179459233729
aF1.915418019804944
aa(lp100
F-3.126591634868664
aF11.77738297494826
aa(lp101
F9.203283546405984
aF1.5629916695909993
aa(lp102
F9.564138339785503
aF2.6583380113309723
aa(lp103
F8.888454015160834
aF1.7718374303713138
aa(lp104
F9.999999999997637
aF2.0539318399224453
aas.