(dp0
S'y'
p1
(lp2
F5.8643052663822415
aF60.543151776096806
aF22.156985492752433
aF91.94718152998905
aF47.34206469300172
aF15.3711243033098
aF3.688425647524099
aF9.5037358364028
aF2.0251270004739172
aF0.4329537868839477
aF1.020224471867813
aF1.160169323462684
aF0.648033324541716
aF1.1369022462600196
aF0.4497858715946119
aF0.8924626896713335
aF0.5418096797498517
aF0.5597513172955146
aF0.8878301909736006
aF0.5897923747262581
aF0.9432535907199586
aF0.4404966969725095
aF0.5077497424591897
aF0.5932022598045652
aF1.0090671924917505
aF1.553502876782943
aF0.7409744692752138
aF0.5812725282336935
aF0.6470074025159338
aF0.40966523952466893
aF1.3231384055039204
aF0.5557244843811855
aF2.4228855199405253
aF1.5564577654828646
aF2.225628446432175
aF0.5065527756997295
aF0.4098256611006974
aF0.7219026255501557
aF0.41261626068348356
aF0.4904032151831359
aF0.5227209494756977
aF0.40242934171957323
aF1.39104972370016
aF0.555155476352363
aF0.602292691464589
aF0.5531555838737443
aF0.8075381201404515
aF0.9146696811134856
aF0.7253933348240125
aF0.8823271904502263
aF0.47660679039075937
aF0.49413043002619794
aF0.45444055097033775
aF0.83717556324134
aF0.46006081002371424
aF0.6417568838497107
aF0.4159030631214087
aF0.4624085907883977
aF0.4624150256784585
aF0.5059387694196413
aF0.9155750219612511
aF0.5762471036039525
aF0.7868910419024413
aF0.5547604565428657
aF0.4278470962364622
aF0.6185946712443133
aF0.5430067239888778
aF0.425370689625737
aF0.5200029788379599
aF0.44375382713374556
aF0.6744229323850242
aF1.4740782502747258
aF1.9982309472205202
aF0.5107020119185588
aF1.8731724088669797
aF1.1274421775667012
aF0.6177528036634268
aF1.2920251682089745
aF0.40290081812265477
aF0.4799186094242476
aF1.6913081439548083
aF2.048868452517544
aF1.8390019841417207
aF1.7342853142785373
asS'X'
p3
(lp4
(lp5
F8.428131088644188
aF2.6216449920746046
aa(lp6
F4.617534275942372
aF8.524427247603377
aa(lp7
F-0.8601331333905824
aF5.035058323137391
aa(lp8
F2.3065586032095737
aF12.404494807952174
aa(lp9
F-4.397480446768571
aF9.098475027998733
aa(lp10
F7.422558023259079
aF1.1327420887390739e-13
aa(lp11
F10.0
aF1.4285613008678273
aa(lp12
F9.999999999999302
aF3.060086906092607e-13
aa(lp13
F10.0
aF2.4633210814371203
aa(lp14
F9.41657984176188
aF2.057087885901884
aa(lp15
F9.102532301981501
aF1.6488287415596306
aa(lp16
F9.739414295946405
aF1.9735619861319995
aa(lp17
F9.421857987706149
aF1.7475724182873866
aa(lp18
F9.340732954735007
aF1.3442981241574643
aa(lp19
F9.37232986254185
aF2.405321412899162
aa(lp20
F9.104528916809732
aF2.0879904265983984
aa(lp21
F9.590339944394595
aF2.272873975203911
aa(lp22
F9.5430507524293
aF2.6537584050769594
aa(lp23
F9.147532301113648
aF2.390203525599449
aa(lp24
F9.253656807237856
aF1.8902440948415977
aa(lp25
F9.470625553761321
aF1.5551248722759112
aa(lp26
F9.332106035963323
aF2.2148511378692937
aa(lp27
F9.570219703731667
aF2.460521678481593
aa(lp28
F9.344971234718345
aF2.593195829199549
aa(lp29
F9.760278859342462
aF2.255886715448274
aa(lp30
F8.92914839339166
aF1.8729827548243818
aa(lp31
F9.284575802802246
aF1.642052555446484
aa(lp32
F9.50260467977082
aF1.919864002386289
aa(lp33
F9.26535684374602
aF1.7694816897950878
aa(lp34
F9.462770499929444
aF2.210783621094468
aa(lp35
F9.075611192596154
aF1.3995001816587056
aa(lp36
F9.559276775725625
aF2.092643796933611
aa(lp37
F10.0
aF2.0570174811108717
aa(lp38
F9.214086407456946
aF1.1152134237841718
aa(lp39
F8.811180632387215
aF1.5334604964333756
aa(lp40
F9.27837790554396
aF2.059088802745221
aa(lp41
F9.467088848312896
aF2.341729881885192
aa(lp42
F9.682905865083063
aF2.5406168958629154
aa(lp43
F9.382146340878133
aF2.1388161768165608
aa(lp44
F9.370421699738316
aF1.927236509635351
aa(lp45
F9.284329544683484
aF2.3147579754201546
aa(lp46
F9.394411216266606
aF2.2366793349605936
aa(lp47
F9.5366450351732
aF1.3746124511975253
aa(lp48
F9.315638614835096
aF2.4811034790489637
aa(lp49
F9.222699358796756
aF2.1893197342585675
aa(lp50
F9.37245529092617
aF1.831711586259305
aa(lp51
F9.136898603889048
aF1.9109690243326403
aa(lp52
F9.26735955932258
aF1.496952930156071
aa(lp53
F9.385786744381726
aF1.6532952739628444
aa(lp54
F9.580706002380198
aF1.7705779013093381
aa(lp55
F9.442533121984493
aF1.9863094301887927
aa(lp56
F9.307930771062887
aF1.9833384351362475
aa(lp57
F9.531567915081531
aF2.3794774663898717
aa(lp58
F9.210034466064759
aF2.5526475265620525
aa(lp59
F9.45709509917049
aF2.5149303382542096
aa(lp60
F9.649527592295563
aF2.386505651631434
aa(lp61
F9.381801076641162
aF2.311686812643059
aa(lp62
F9.515723187968458
aF2.1658158540273686
aa(lp63
F9.309417205977493
aF2.133322339788547
aa(lp64
F9.53847342735734
aF2.556721215971633
aa(lp65
F9.18662384428045
aF1.571008576794794
aa(lp66
F9.450395709854797
aF1.8518891735516412
aa(lp67
F9.16711269353951
aF1.7850098909357703
aa(lp68
F9.308413357394453
aF1.8559043587176458
aa(lp69
F9.455195684956728
aF2.1145794145546115
aa(lp70
F9.21331437668383
aF2.004814695669846
aa(lp71
F9.521631135603995
aF2.0118469673509987
aa(lp72
F9.450073687066826
aF2.4264523023714326
aa(lp73
F9.30738412523719
aF1.9216267478931508
aa(lp74
F9.35143783402123
aF2.0507060014713487
aa(lp75
F9.201447413119007
aF2.273709335077426
aa(lp76
F9.407278332504657
aF1.1994256701046406
aa(lp77
F9.594169235729675
aF1.1789215281971535
aa(lp78
F9.446758971092478
aF2.5999610770910904
aa(lp79
F9.37548326525228
aF1.001278234666071
aa(lp80
F9.211225802941955
aF1.3706891038691547
aa(lp81
F9.34062302378697
aF1.752785716010479
aa(lp82
F9.236562331731884
aF1.2534977436721737
aa(lp83
F9.41593563563645
aF2.174869923444535
aa(lp84
F9.38745148370812
aF2.4949595683303376
aa(lp85
F9.022953939189089
aF1.2236362200668356
aa(lp86
F9.045071389332591
aF0.9827095066325916
aa(lp87
F9.216209276740356
aF0.9791212613968518
aa(lp88
F9.44142519164898
aF1.1078313471759675
aas.