(dp0
S'y'
p1
(lp2
F3.2697588890969254
aF63.30380334495217
aF63.626260463423826
aF13.681615940846621
aF5.341079761451837
aF5.707348606278894
aF2.659347331017589
aF1.6405768881055316
aF1.783701460068798
aF1.192656588439453
aF1.1497571145581595
aF1.8082984058159237
aF1.1818164771574793
aF1.458003246403246
aF0.8450432679484976
aF0.7614478633989084
aF1.6093812760278148
aF0.6725663313419652
aF0.7919652818411329
aF1.2316702086110247
aF1.0492681597981726
aF1.668515296537679
aF0.8727328320409278
aF0.5494961130347171
aF0.8899390474753375
aF0.6234442999961622
aF1.067572487614754
aF1.8381002754519304
aF1.4043869740418948
aF1.0592723310015852
aF0.6076314907086804
aF0.45832918455388416
aF0.59248472421225
aF0.7634255328958179
aF1.1165361388047401
aF0.9644164025744502
aF0.5949537249099421
aF0.4277553566813541
aF0.44747976106362053
aF0.982015791352195
aF0.4516672172199332
aF0.759208296514732
aF1.6460910668005422
aF2.013282319537735
aF2.4093158677798785
aF1.474889427313947
aF1.964770347753774
aF0.5304937883858596
aF1.293561814544983
aF0.6123126292710985
aF0.927550256356259
aF0.4047831813761853
aF1.8814549697558398
aF5.444720697933372
aF0.4685829746240966
aF2.2270454673680575
aF7.113154078859077
aF4.481520417337407
aF5.458137947854011
aF3.8507922511890165
aF2.3254646563515724
aF4.51074153290552
aF3.4453222392191076
aF0.41793493380145286
aF3.7040708721769793
aF4.582061016692878
aF2.9302505094717413
aF3.2866041508721215
aF3.446793072199993
aF2.528761913868225
aF2.6078637395483515
aF2.660130962555617
aF2.1682242912425433
aF2.423943023816604
aF1.957773094666674
aF1.9735596619161733
aF2.2341574626225587
aF3.6742426068670797
aF1.7738942087401206
aF1.803564103826778
aF2.72972153688196
aF2.062766347976442
aF2.319514867006018
aF1.516916931313256
aF1.718340290980123
aF1.6648957958194153
aF1.3407948114223025
aF1.4987429609239058
aF1.4620015422648684
aF1.3578641282173383
aF1.418782675027229
aF2.4943575559044735
aF1.681361871160485
aF1.607492345474066
aF1.2013781060867164
aF1.8117312332594953
aF5.256357325639713
aF1.2982813346372915
aF4.5072792533606
aF1.6772167087362462
asS'X'
p3
(lp4
(lp5
F9.821697205601428
aF1.1279474026885077
aa(lp6
F6.233802884494025
aF7.611919573811094
aa(lp7
F-0.7215293565363865
aF14.0272893628942
aa(lp8
F3.1784231575197133
aF5.864654552581139
aa(lp9
F-2.1149885541404494
aF9.373756516644137
aa(lp10
F9.99999017371341
aF0.8094744865571193
aa(lp11
F9.559421957477158
aF0.884805785137206
aa(lp12
F9.485686460749308
aF1.1921945887490932
aa(lp13
F9.245205726647562
aF1.0014940753245236
aa(lp14
F9.23170466889175
aF1.3159961534939286
aa(lp15
F9.516063541897294
aF1.4799623789831018
aa(lp16
F9.637575418638688
aF1.3324509142224512
aa(lp17
F9.395417197273764
aF1.3436870725858039
aa(lp18
F9.314856353221447
aF1.1629759158620023
aa(lp19
F9.282785837218714
aF1.5475119099541899
aa(lp20
F9.473434765524559
aF1.6955583951337367
aa(lp21
F9.721994208571545
aF1.6086082197601954
aa(lp22
F9.255399173837617
aF1.7483470188968007
aa(lp23
F9.39094561199735
aF1.599857761050755
aa(lp24
F9.060626488857485
aF1.5251971788214667
aa(lp25
F9.18481813908914
aF1.4529412139436257
aa(lp26
F9.024350483547211
aF1.2367816725076917
aa(lp27
F9.177184704802578
aF1.634086368303149
aa(lp28
F9.422411582158128
aF1.858782440068829
aa(lp29
F9.595736032311377
aF1.7963872526000422
aa(lp30
F9.224683987802964
aF1.911518909373892
aa(lp31
F9.06026361934982
aF1.7797859487863514
aa(lp32
F8.882296087846665
aF1.6073088493259633
aa(lp33
F9.051271898513775
aF1.3835262513920086
aa(lp34
F9.568071559748605
aF1.6163145767391565
aa(lp35
F9.361257220535983
aF1.763638475322153
aa(lp36
F9.372148906964823
aF1.9913366838187905
aa(lp37
F9.527875195126489
aF1.954426705354899
aa(lp38
F9.17334965304749
aF1.8056779054475622
aa(lp39
F9.709604062161395
aF1.9109245204059058
aa(lp40
F9.358190136099566
aF1.459162662177519
aa(lp41
F9.222464308228465
aF2.0591937146806694
aa(lp42
F9.450030260547067
aF2.1064485991557067
aa(lp43
F9.332384529093368
aF2.0846207489829722
aa(lp44
F9.074345958656918
aF1.9631262447893365
aa(lp45
F9.320444502393597
aF2.2079190439881344
aa(lp46
F9.155415839340655
aF2.1676255667070405
aa(lp47
F8.909210094370872
aF1.8806569578647878
aa(lp48
F8.876754597202488
aF1.3945246561060194
aa(lp49
F9.815336898943439
aF1.4450586107411978
aa(lp50
F9.167565946826608
aF1.1812737214525737
aa(lp51
F9.037242836212258
aF1.0360641153315937
aa(lp52
F9.258613292942215
aF2.1399928611394334
aa(lp53
F9.70429313085857
aF1.7591320264216626
aa(lp54
F9.583166732824392
aF2.07224556166491
aa(lp55
F9.456796545075125
aF1.551219108712288
aa(lp56
F9.45042053870458
aF2.209340801721732
aa(lp57
F9.430989926040995
aF1.037006363412701
aa(lp58
F-2.1972429163333884
aF9.07206667802043
aa(lp59
F9.517500192028786
aF2.1532691681532605
aa(lp60
F9.602738933622195
aF1.1004410489419276
aa(lp61
F-1.8865673354707708
aF9.144976667334085
aa(lp62
F-2.4318997121164045
aF9.290869963760839
aa(lp63
F-2.526460045920211
aF9.012769925070712
aa(lp64
F-2.418094338862598
aF9.565585528511221
aa(lp65
F8.862035873198014
aF1.1737957799701535
aa(lp66
F-2.6884386158464832
aF9.421128280285307
aa(lp67
F-2.61966613331083
aF9.708450642474611
aa(lp68
F9.374457034504264
aF2.2991187345298982
aa(lp69
F-2.3385288275499367
aF9.803938577572476
aa(lp70
F-2.1984686292324462
aF9.640983968973362
aa(lp71
F-2.5619454333195315
aF9.926956215788477
aa(lp72
F-2.3753218052110125
aF10.0423236417502
aa(lp73
F-2.8159605385575683
aF9.890953350287196
aa(lp74
F-2.651547066951442
aF10.110109402278741
aa(lp75
F-2.508095753706638
aF10.199563244134684
aa(lp76
F-2.8351197010910965
aF10.183093094041405
aa(lp77
F-2.6755987204235345
aF10.301012429597646
aa(lp78
F-2.5057121198753807
aF10.396746334989073
aa(lp79
F-2.780539683756223
aF10.43461483115075
aa(lp80
F-2.655463190889183
aF10.43875967659279
aa(lp81
F-2.803884539953866
aF10.320724157970693
aa(lp82
F-2.29002094210408
aF10.297502000786777
aa(lp83
F-2.660406819838809
aF10.596110965902879
aa(lp84
F-2.8597892100560958
aF10.573928028492098
aa(lp85
F-2.9944408926306205
aF10.408774331039536
aa(lp86
F-2.878105931843759
aF10.474996934577298
aa(lp87
F-2.5051988222687878
aF10.577179700865974
aa(lp88
F-2.7688001854178457
aF10.699761996038427
aa(lp89
F-2.634849180274327
aF10.735490403928445
aa(lp90
F-2.9299958856318815
aF10.724435405852693
aa(lp91
F-2.79534862206451
aF10.827800120174892
aa(lp92
F-2.6812528854749536
aF10.859596182870384
aa(lp93
F-2.7284475250580607
aF10.77912734309229
aa(lp94
F-2.9215829957724115
aF10.877361611091525
aa(lp95
F-2.865472338044381
aF10.789806742608873
aa(lp96
F-3.097136976787055
aF10.699480652239636
aa(lp97
F-2.760279952020919
aF10.58750002291408
aa(lp98
F-2.858893675940046
aF10.675030323059937
aa(lp99
F-2.809999280703392
aF10.942763730244467
aa(lp100
F-2.7220108574085033
aF10.508417849791114
aa(lp101
F-2.0901973791698842
aF10.029865076205402
aa(lp102
F-2.7681067732361284
aF10.887736665057181
aa(lp103
F-3.107273435758955
aF10.142449645611515
aa(lp104
F-3.044281293753985
aF10.908074327769858
aas.