(dp0
S'x29'
p1
(lp2
F1.0
aF0.5
aF0.3333333333333333
aF0.25
aF0.2
aF0.16666666666666666
aF0.14285714285714285
aF0.125
aF0.1111111111111111
aF0.1
aF0.09090909090909091
aF0.08333333333333333
aF0.07692307692307693
aF0.07142857142857142
aF0.06666666666666667
aF0.0625
aF0.058823529411764705
aF0.05555555555555555
aF0.05263157894736842
asS'x28'
p3
(lp4
F1.0
aF0.5
aF0.3333333333333333
aF0.25
aF0.2
aF0.16666666666666666
aF0.14285714285714285
aF0.125
aF0.1111111111111111
aF0.1
aF0.09090909090909091
aF0.08333333333333333
aF0.07692307692307693
aF0.07142857142857142
aF0.06666666666666667
aF0.0625
aF0.058823529411764705
aF0.05555555555555555
aF0.05263157894736842
asS'x25'
p5
(lp6
F1.0
aF0.5
aF0.3333333333333333
aF0.25
aF0.2
aF0.16666666666666666
aF0.14285714285714285
aF0.125
aF0.1111111111111111
aF0.1
aF0.09090909090909091
aF0.08333333333333333
aF0.07692307692307693
aF0.07142857142857142
aF0.06666666666666667
aF0.0625
aF0.058823529411764705
aF0.05555555555555555
aF0.05263157894736842
asS'x24'
p7
(lp8
F1.0
aF0.5
aF0.3333333333333333
aF0.25
aF0.2
aF0.16666666666666666
aF0.14285714285714285
aF0.125
aF0.1111111111111111
aF0.1
aF0.09090909090909091
aF0.08333333333333333
aF0.07692307692307693
aF0.07142857142857142
aF0.06666666666666667
aF0.0625
aF0.058823529411764705
aF0.05555555555555555
aF0.05263157894736842
asS'x27'
p9
(lp10
F1.0
aF0.5
aF0.3333333333333333
aF0.25
aF0.2
aF0.16666666666666666
aF0.14285714285714285
aF0.125
aF0.1111111111111111
aF0.1
aF0.09090909090909091
aF0.08333333333333333
aF0.07692307692307693
aF0.07142857142857142
aF0.06666666666666667
aF0.0625
aF0.058823529411764705
aF0.05555555555555555
aF0.05263157894736842
asS'x26'
p11
(lp12
F1.0
aF0.5
aF0.3333333333333333
aF0.25
aF0.2
aF0.16666666666666666
aF0.14285714285714285
aF0.125
aF0.1111111111111111
aF0.1
aF0.09090909090909091
aF0.08333333333333333
aF0.07692307692307693
aF0.07142857142857142
aF0.06666666666666667
aF0.0625
aF0.058823529411764705
aF0.05555555555555555
aF0.05263157894736842
asS'x21'
p13
(lp14
F1.0
aF0.5
aF0.3333333333333333
aF0.25
aF0.2
aF0.16666666666666666
aF0.14285714285714285
aF0.125
aF0.1111111111111111
aF0.1
aF0.09090909090909091
aF0.08333333333333333
aF0.07692307692307693
aF0.07142857142857142
aF0.06666666666666667
aF0.0625
aF0.058823529411764705
aF0.05555555555555555
aF0.05263157894736842
asS'x20'
p15
(lp16
F1.0
aF0.5
aF0.3333333333333333
aF0.25
aF0.2
aF0.16666666666666666
aF0.14285714285714285
aF0.125
aF0.1111111111111111
aF0.1
aF0.09090909090909091
aF0.08333333333333333
aF0.07692307692307693
aF0.07142857142857142
aF0.06666666666666667
aF0.0625
aF0.058823529411764705
aF0.05555555555555555
aF0.05263157894736842
asS'x23'
p17
(lp18
F1.0
aF0.5
aF0.3333333333333333
aF0.25
aF0.2
aF0.16666666666666666
aF0.14285714285714285
aF0.125
aF0.1111111111111111
aF0.1
aF0.09090909090909091
aF0.08333333333333333
aF0.07692307692307693
aF0.07142857142857142
aF0.06666666666666667
aF0.0625
aF0.058823529411764705
aF0.05555555555555555
aF0.05263157894736842
asS'x22'
p19
(lp20
F1.0
aF0.5
aF0.3333333333333333
aF0.25
aF0.2
aF0.16666666666666666
aF0.14285714285714285
aF0.125
aF0.1111111111111111
aF0.1
aF0.09090909090909091
aF0.08333333333333333
aF0.07692307692307693
aF0.07142857142857142
aF0.06666666666666667
aF0.0625
aF0.058823529411764705
aF0.05555555555555555
aF0.05263157894736842
asS'x8'
p21
(lp22
F1.0
aF0.5
aF0.3333333333333333
aF0.25
aF0.2
aF0.16666666666666666
aF0.14285714285714285
aF0.125
aF0.1111111111111111
aF0.1
aF0.09090909090909091
aF0.08333333333333333
aF0.07692307692307693
aF0.07142857142857142
aF0.06666666666666667
aF0.0625
aF0.058823529411764705
aF0.05555555555555555
aF0.05263157894736842
asS'x9'
p23
(lp24
F1.0
aF0.5
aF0.3333333333333333
aF0.25
aF0.2
aF0.16666666666666666
aF0.14285714285714285
aF0.125
aF0.1111111111111111
aF0.1
aF0.09090909090909091
aF0.08333333333333333
aF0.07692307692307693
aF0.07142857142857142
aF0.06666666666666667
aF0.0625
aF0.058823529411764705
aF0.05555555555555555
aF0.05263157894736842
asS'x2'
p25
(lp26
F1.0
aF0.5
aF0.3333333333333333
aF0.25
aF0.2
aF0.16666666666666666
aF0.14285714285714285
aF0.125
aF0.1111111111111111
aF0.1
aF0.09090909090909091
aF0.08333333333333333
aF0.07692307692307693
aF0.07142857142857142
aF0.06666666666666667
aF0.0625
aF0.058823529411764705
aF0.05555555555555555
aF0.05263157894736842
asS'x3'
p27
(lp28
F1.0
aF0.5
aF0.3333333333333333
aF0.25
aF0.2
aF0.16666666666666666
aF0.14285714285714285
aF0.125
aF0.1111111111111111
aF0.1
aF0.09090909090909091
aF0.08333333333333333
aF0.07692307692307693
aF0.07142857142857142
aF0.06666666666666667
aF0.0625
aF0.058823529411764705
aF0.05555555555555555
aF0.05263157894736842
asS'x0'
p29
(lp30
F1.0
aF0.5
aF0.3333333333333333
aF0.25
aF0.2
aF0.16666666666666666
aF0.14285714285714285
aF0.125
aF0.1111111111111111
aF0.1
aF0.09090909090909091
aF0.08333333333333333
aF0.07692307692307693
aF0.07142857142857142
aF0.06666666666666667
aF0.0625
aF0.058823529411764705
aF0.05555555555555555
aF0.05263157894736842
asS'x1'
p31
(lp32
F1.0
aF0.5
aF0.3333333333333333
aF0.25
aF0.2
aF0.16666666666666666
aF0.14285714285714285
aF0.125
aF0.1111111111111111
aF0.1
aF0.09090909090909091
aF0.08333333333333333
aF0.07692307692307693
aF0.07142857142857142
aF0.06666666666666667
aF0.0625
aF0.058823529411764705
aF0.05555555555555555
aF0.05263157894736842
asS'x6'
p33
(lp34
F1.0
aF0.5
aF0.3333333333333333
aF0.25
aF0.2
aF0.16666666666666666
aF0.14285714285714285
aF0.125
aF0.1111111111111111
aF0.1
aF0.09090909090909091
aF0.08333333333333333
aF0.07692307692307693
aF0.07142857142857142
aF0.06666666666666667
aF0.0625
aF0.058823529411764705
aF0.05555555555555555
aF0.05263157894736842
asS'x7'
p35
(lp36
F1.0
aF0.5
aF0.3333333333333333
aF0.25
aF0.2
aF0.16666666666666666
aF0.14285714285714285
aF0.125
aF0.1111111111111111
aF0.1
aF0.09090909090909091
aF0.08333333333333333
aF0.07692307692307693
aF0.07142857142857142
aF0.06666666666666667
aF0.0625
aF0.058823529411764705
aF0.05555555555555555
aF0.05263157894736842
asS'x4'
p37
(lp38
F1.0
aF0.5
aF0.3333333333333333
aF0.25
aF0.2
aF0.16666666666666666
aF0.14285714285714285
aF0.125
aF0.1111111111111111
aF0.1
aF0.09090909090909091
aF0.08333333333333333
aF0.07692307692307693
aF0.07142857142857142
aF0.06666666666666667
aF0.0625
aF0.058823529411764705
aF0.05555555555555555
aF0.05263157894736842
asS'x5'
p39
(lp40
F1.0
aF0.5
aF0.3333333333333333
aF0.25
aF0.2
aF0.16666666666666666
aF0.14285714285714285
aF0.125
aF0.1111111111111111
aF0.1
aF0.09090909090909091
aF0.08333333333333333
aF0.07692307692307693
aF0.07142857142857142
aF0.06666666666666667
aF0.0625
aF0.058823529411764705
aF0.05555555555555555
aF0.05263157894736842
asS'x18'
p41
(lp42
F1.0
aF0.5
aF0.3333333333333333
aF0.25
aF0.2
aF0.16666666666666666
aF0.14285714285714285
aF0.125
aF0.1111111111111111
aF0.1
aF0.09090909090909091
aF0.08333333333333333
aF0.07692307692307693
aF0.07142857142857142
aF0.06666666666666667
aF0.0625
aF0.058823529411764705
aF0.05555555555555555
aF0.05263157894736842
asS'x19'
p43
(lp44
F1.0
aF0.5
aF0.3333333333333333
aF0.25
aF0.2
aF0.16666666666666666
aF0.14285714285714285
aF0.125
aF0.1111111111111111
aF0.1
aF0.09090909090909091
aF0.08333333333333333
aF0.07692307692307693
aF0.07142857142857142
aF0.06666666666666667
aF0.0625
aF0.058823529411764705
aF0.05555555555555555
aF0.05263157894736842
asS'x10'
p45
(lp46
F1.0
aF0.5
aF0.3333333333333333
aF0.25
aF0.2
aF0.16666666666666666
aF0.14285714285714285
aF0.125
aF0.1111111111111111
aF0.1
aF0.09090909090909091
aF0.08333333333333333
aF0.07692307692307693
aF0.07142857142857142
aF0.06666666666666667
aF0.0625
aF0.058823529411764705
aF0.05555555555555555
aF0.05263157894736842
asS'x11'
p47
(lp48
F1.0
aF0.5
aF0.3333333333333333
aF0.25
aF0.2
aF0.16666666666666666
aF0.14285714285714285
aF0.125
aF0.1111111111111111
aF0.1
aF0.09090909090909091
aF0.08333333333333333
aF0.07692307692307693
aF0.07142857142857142
aF0.06666666666666667
aF0.0625
aF0.058823529411764705
aF0.05555555555555555
aF0.05263157894736842
asS'x12'
p49
(lp50
F1.0
aF0.5
aF0.3333333333333333
aF0.25
aF0.2
aF0.16666666666666666
aF0.14285714285714285
aF0.125
aF0.1111111111111111
aF0.1
aF0.09090909090909091
aF0.08333333333333333
aF0.07692307692307693
aF0.07142857142857142
aF0.06666666666666667
aF0.0625
aF0.058823529411764705
aF0.05555555555555555
aF0.05263157894736842
asS'x13'
p51
(lp52
F1.0
aF0.5
aF0.3333333333333333
aF0.25
aF0.2
aF0.16666666666666666
aF0.14285714285714285
aF0.125
aF0.1111111111111111
aF0.1
aF0.09090909090909091
aF0.08333333333333333
aF0.07692307692307693
aF0.07142857142857142
aF0.06666666666666667
aF0.0625
aF0.058823529411764705
aF0.05555555555555555
aF0.05263157894736842
asS'x14'
p53
(lp54
F1.0
aF0.5
aF0.3333333333333333
aF0.25
aF0.2
aF0.16666666666666666
aF0.14285714285714285
aF0.125
aF0.1111111111111111
aF0.1
aF0.09090909090909091
aF0.08333333333333333
aF0.07692307692307693
aF0.07142857142857142
aF0.06666666666666667
aF0.0625
aF0.058823529411764705
aF0.05555555555555555
aF0.05263157894736842
asS'x15'
p55
(lp56
F1.0
aF0.5
aF0.3333333333333333
aF0.25
aF0.2
aF0.16666666666666666
aF0.14285714285714285
aF0.125
aF0.1111111111111111
aF0.1
aF0.09090909090909091
aF0.08333333333333333
aF0.07692307692307693
aF0.07142857142857142
aF0.06666666666666667
aF0.0625
aF0.058823529411764705
aF0.05555555555555555
aF0.05263157894736842
asS'x16'
p57
(lp58
F1.0
aF0.5
aF0.3333333333333333
aF0.25
aF0.2
aF0.16666666666666666
aF0.14285714285714285
aF0.125
aF0.1111111111111111
aF0.1
aF0.09090909090909091
aF0.08333333333333333
aF0.07692307692307693
aF0.07142857142857142
aF0.06666666666666667
aF0.0625
aF0.058823529411764705
aF0.05555555555555555
aF0.05263157894736842
asS'x17'
p59
(lp60
F1.0
aF0.5
aF0.3333333333333333
aF0.25
aF0.2
aF0.16666666666666666
aF0.14285714285714285
aF0.125
aF0.1111111111111111
aF0.1
aF0.09090909090909091
aF0.08333333333333333
aF0.07692307692307693
aF0.07142857142857142
aF0.06666666666666667
aF0.0625
aF0.058823529411764705
aF0.05555555555555555
aF0.05263157894736842
as.