(dp1
S'x29'
p2
(lp3
I0
aI1000
asS'x28'
p4
(lp5
I0
aI1000
asS'x25'
p6
(lp7
I0
aI1000
asS'x24'
p8
(lp9
I0
aI1000
asS'x27'
p10
(lp11
I0
aI1000
asS'x26'
p12
(lp13
I0
aI1000
asS'x21'
p14
(lp15
I0
aI1000
asS'x20'
p16
(lp17
I0
aI1000
asS'x23'
p18
(lp19
I0
aI1000
asS'x22'
p20
(lp21
I0
aI1000
asS'x8'
p22
(lp23
I0
aI1000
asS'x9'
p24
(lp25
I0
aI1000
asS'x2'
p26
(lp27
I0
aI1000
asS'x3'
p28
(lp29
I0
aI1000
asS'x0'
p30
(lp31
I0
aI1000
asS'x1'
p32
(lp33
I0
aI1000
asS'x6'
p34
(lp35
I0
aI1000
asS'x7'
p36
(lp37
I0
aI1000
asS'x4'
p38
(lp39
I0
aI1000
asS'x5'
p40
(lp41
I0
aI1000
asS'x18'
p42
(lp43
I0
aI1000
asS'x19'
p44
(lp45
I0
aI1000
asS'x10'
p46
(lp47
I0
aI1000
asS'x11'
p48
(lp49
I0
aI1000
asS'x12'
p50
(lp51
I0
aI1000
asS'x13'
p52
(lp53
I0
aI1000
asS'x14'
p54
(lp55
I0
aI1000
asS'x15'
p56
(lp57
I0
aI1000
asS'x16'
p58
(lp59
I0
aI1000
asS'x17'
p60
(lp61
I0
aI1000
as.