(dp0
S'x29'
p1
(lp2
I0
aI5
asS'x28'
p3
(lp4
I0
aI5
asS'x25'
p5
(lp6
I0
aI5
asS'x24'
p7
(lp8
I0
aI5
asS'x27'
p9
(lp10
I0
aI5
asS'x26'
p11
(lp12
I0
aI5
asS'x21'
p13
(lp14
I0
aI5
asS'x20'
p15
(lp16
I0
aI5
asS'x23'
p17
(lp18
I0
aI5
asS'x22'
p19
(lp20
I0
aI5
asS'x8'
p21
(lp22
I0
aI5
asS'x9'
p23
(lp24
I0
aI5
asS'x2'
p25
(lp26
I0
aI5
asS'x3'
p27
(lp28
I0
aI5
asS'x0'
p29
(lp30
I0
aI5
asS'x1'
p31
(lp32
I0
aI5
asS'x6'
p33
(lp34
I0
aI5
asS'x7'
p35
(lp36
I0
aI5
asS'x4'
p37
(lp38
I0
aI5
asS'x5'
p39
(lp40
I0
aI5
asS'x18'
p41
(lp42
I0
aI5
asS'x19'
p43
(lp44
I0
aI5
asS'x10'
p45
(lp46
I0
aI5
asS'x11'
p47
(lp48
I0
aI5
asS'x12'
p49
(lp50
I0
aI5
asS'x13'
p51
(lp52
I0
aI5
asS'x14'
p53
(lp54
I0
aI5
asS'x15'
p55
(lp56
I0
aI5
asS'x16'
p57
(lp58
I0
aI5
asS'x17'
p59
(lp60
I0
aI5
as.