(dp1
S'x29'
p2
(lp3
F1
aF0.5
aF0.33333333333333331
aF0.25
aF0.20000000000000001
aF0.16666666666666666
aF0.14285714285714285
aF0.125
aF0.1111111111111111
aF0.10000000000000001
aF0.090909090909090912
aF0.083333333333333329
aF0.076923076923076927
aF0.071428571428571425
aF0.066666666666666666
aF0.0625
aF0.058823529411764705
aF0.055555555555555552
aF0.052631578947368418
asS'x28'
p4
(lp5
F1
aF0.5
aF0.33333333333333331
aF0.25
aF0.20000000000000001
aF0.16666666666666666
aF0.14285714285714285
aF0.125
aF0.1111111111111111
aF0.10000000000000001
aF0.090909090909090912
aF0.083333333333333329
aF0.076923076923076927
aF0.071428571428571425
aF0.066666666666666666
aF0.0625
aF0.058823529411764705
aF0.055555555555555552
aF0.052631578947368418
asS'x25'
p6
(lp7
F1
aF0.5
aF0.33333333333333331
aF0.25
aF0.20000000000000001
aF0.16666666666666666
aF0.14285714285714285
aF0.125
aF0.1111111111111111
aF0.10000000000000001
aF0.090909090909090912
aF0.083333333333333329
aF0.076923076923076927
aF0.071428571428571425
aF0.066666666666666666
aF0.0625
aF0.058823529411764705
aF0.055555555555555552
aF0.052631578947368418
asS'x24'
p8
(lp9
F1
aF0.5
aF0.33333333333333331
aF0.25
aF0.20000000000000001
aF0.16666666666666666
aF0.14285714285714285
aF0.125
aF0.1111111111111111
aF0.10000000000000001
aF0.090909090909090912
aF0.083333333333333329
aF0.076923076923076927
aF0.071428571428571425
aF0.066666666666666666
aF0.0625
aF0.058823529411764705
aF0.055555555555555552
aF0.052631578947368418
asS'x27'
p10
(lp11
F1
aF0.5
aF0.33333333333333331
aF0.25
aF0.20000000000000001
aF0.16666666666666666
aF0.14285714285714285
aF0.125
aF0.1111111111111111
aF0.10000000000000001
aF0.090909090909090912
aF0.083333333333333329
aF0.076923076923076927
aF0.071428571428571425
aF0.066666666666666666
aF0.0625
aF0.058823529411764705
aF0.055555555555555552
aF0.052631578947368418
asS'x26'
p12
(lp13
F1
aF0.5
aF0.33333333333333331
aF0.25
aF0.20000000000000001
aF0.16666666666666666
aF0.14285714285714285
aF0.125
aF0.1111111111111111
aF0.10000000000000001
aF0.090909090909090912
aF0.083333333333333329
aF0.076923076923076927
aF0.071428571428571425
aF0.066666666666666666
aF0.0625
aF0.058823529411764705
aF0.055555555555555552
aF0.052631578947368418
asS'x21'
p14
(lp15
F1
aF0.5
aF0.33333333333333331
aF0.25
aF0.20000000000000001
aF0.16666666666666666
aF0.14285714285714285
aF0.125
aF0.1111111111111111
aF0.10000000000000001
aF0.090909090909090912
aF0.083333333333333329
aF0.076923076923076927
aF0.071428571428571425
aF0.066666666666666666
aF0.0625
aF0.058823529411764705
aF0.055555555555555552
aF0.052631578947368418
asS'x20'
p16
(lp17
F1
aF0.5
aF0.33333333333333331
aF0.25
aF0.20000000000000001
aF0.16666666666666666
aF0.14285714285714285
aF0.125
aF0.1111111111111111
aF0.10000000000000001
aF0.090909090909090912
aF0.083333333333333329
aF0.076923076923076927
aF0.071428571428571425
aF0.066666666666666666
aF0.0625
aF0.058823529411764705
aF0.055555555555555552
aF0.052631578947368418
asS'x23'
p18
(lp19
F1
aF0.5
aF0.33333333333333331
aF0.25
aF0.20000000000000001
aF0.16666666666666666
aF0.14285714285714285
aF0.125
aF0.1111111111111111
aF0.10000000000000001
aF0.090909090909090912
aF0.083333333333333329
aF0.076923076923076927
aF0.071428571428571425
aF0.066666666666666666
aF0.0625
aF0.058823529411764705
aF0.055555555555555552
aF0.052631578947368418
asS'x22'
p20
(lp21
F1
aF0.5
aF0.33333333333333331
aF0.25
aF0.20000000000000001
aF0.16666666666666666
aF0.14285714285714285
aF0.125
aF0.1111111111111111
aF0.10000000000000001
aF0.090909090909090912
aF0.083333333333333329
aF0.076923076923076927
aF0.071428571428571425
aF0.066666666666666666
aF0.0625
aF0.058823529411764705
aF0.055555555555555552
aF0.052631578947368418
asS'x8'
p22
(lp23
F1
aF0.5
aF0.33333333333333331
aF0.25
aF0.20000000000000001
aF0.16666666666666666
aF0.14285714285714285
aF0.125
aF0.1111111111111111
aF0.10000000000000001
aF0.090909090909090912
aF0.083333333333333329
aF0.076923076923076927
aF0.071428571428571425
aF0.066666666666666666
aF0.0625
aF0.058823529411764705
aF0.055555555555555552
aF0.052631578947368418
asS'x9'
p24
(lp25
F1
aF0.5
aF0.33333333333333331
aF0.25
aF0.20000000000000001
aF0.16666666666666666
aF0.14285714285714285
aF0.125
aF0.1111111111111111
aF0.10000000000000001
aF0.090909090909090912
aF0.083333333333333329
aF0.076923076923076927
aF0.071428571428571425
aF0.066666666666666666
aF0.0625
aF0.058823529411764705
aF0.055555555555555552
aF0.052631578947368418
asS'x2'
p26
(lp27
F1
aF0.5
aF0.33333333333333331
aF0.25
aF0.20000000000000001
aF0.16666666666666666
aF0.14285714285714285
aF0.125
aF0.1111111111111111
aF0.10000000000000001
aF0.090909090909090912
aF0.083333333333333329
aF0.076923076923076927
aF0.071428571428571425
aF0.066666666666666666
aF0.0625
aF0.058823529411764705
aF0.055555555555555552
aF0.052631578947368418
asS'x3'
p28
(lp29
F1
aF0.5
aF0.33333333333333331
aF0.25
aF0.20000000000000001
aF0.16666666666666666
aF0.14285714285714285
aF0.125
aF0.1111111111111111
aF0.10000000000000001
aF0.090909090909090912
aF0.083333333333333329
aF0.076923076923076927
aF0.071428571428571425
aF0.066666666666666666
aF0.0625
aF0.058823529411764705
aF0.055555555555555552
aF0.052631578947368418
asS'x0'
p30
(lp31
F1
aF0.5
aF0.33333333333333331
aF0.25
aF0.20000000000000001
aF0.16666666666666666
aF0.14285714285714285
aF0.125
aF0.1111111111111111
aF0.10000000000000001
aF0.090909090909090912
aF0.083333333333333329
aF0.076923076923076927
aF0.071428571428571425
aF0.066666666666666666
aF0.0625
aF0.058823529411764705
aF0.055555555555555552
aF0.052631578947368418
asS'x1'
p32
(lp33
F1
aF0.5
aF0.33333333333333331
aF0.25
aF0.20000000000000001
aF0.16666666666666666
aF0.14285714285714285
aF0.125
aF0.1111111111111111
aF0.10000000000000001
aF0.090909090909090912
aF0.083333333333333329
aF0.076923076923076927
aF0.071428571428571425
aF0.066666666666666666
aF0.0625
aF0.058823529411764705
aF0.055555555555555552
aF0.052631578947368418
asS'x6'
p34
(lp35
F1
aF0.5
aF0.33333333333333331
aF0.25
aF0.20000000000000001
aF0.16666666666666666
aF0.14285714285714285
aF0.125
aF0.1111111111111111
aF0.10000000000000001
aF0.090909090909090912
aF0.083333333333333329
aF0.076923076923076927
aF0.071428571428571425
aF0.066666666666666666
aF0.0625
aF0.058823529411764705
aF0.055555555555555552
aF0.052631578947368418
asS'x7'
p36
(lp37
F1
aF0.5
aF0.33333333333333331
aF0.25
aF0.20000000000000001
aF0.16666666666666666
aF0.14285714285714285
aF0.125
aF0.1111111111111111
aF0.10000000000000001
aF0.090909090909090912
aF0.083333333333333329
aF0.076923076923076927
aF0.071428571428571425
aF0.066666666666666666
aF0.0625
aF0.058823529411764705
aF0.055555555555555552
aF0.052631578947368418
asS'x4'
p38
(lp39
F1
aF0.5
aF0.33333333333333331
aF0.25
aF0.20000000000000001
aF0.16666666666666666
aF0.14285714285714285
aF0.125
aF0.1111111111111111
aF0.10000000000000001
aF0.090909090909090912
aF0.083333333333333329
aF0.076923076923076927
aF0.071428571428571425
aF0.066666666666666666
aF0.0625
aF0.058823529411764705
aF0.055555555555555552
aF0.052631578947368418
asS'x5'
p40
(lp41
F1
aF0.5
aF0.33333333333333331
aF0.25
aF0.20000000000000001
aF0.16666666666666666
aF0.14285714285714285
aF0.125
aF0.1111111111111111
aF0.10000000000000001
aF0.090909090909090912
aF0.083333333333333329
aF0.076923076923076927
aF0.071428571428571425
aF0.066666666666666666
aF0.0625
aF0.058823529411764705
aF0.055555555555555552
aF0.052631578947368418
asS'x18'
p42
(lp43
F1
aF0.5
aF0.33333333333333331
aF0.25
aF0.20000000000000001
aF0.16666666666666666
aF0.14285714285714285
aF0.125
aF0.1111111111111111
aF0.10000000000000001
aF0.090909090909090912
aF0.083333333333333329
aF0.076923076923076927
aF0.071428571428571425
aF0.066666666666666666
aF0.0625
aF0.058823529411764705
aF0.055555555555555552
aF0.052631578947368418
asS'x19'
p44
(lp45
F1
aF0.5
aF0.33333333333333331
aF0.25
aF0.20000000000000001
aF0.16666666666666666
aF0.14285714285714285
aF0.125
aF0.1111111111111111
aF0.10000000000000001
aF0.090909090909090912
aF0.083333333333333329
aF0.076923076923076927
aF0.071428571428571425
aF0.066666666666666666
aF0.0625
aF0.058823529411764705
aF0.055555555555555552
aF0.052631578947368418
asS'x10'
p46
(lp47
F1
aF0.5
aF0.33333333333333331
aF0.25
aF0.20000000000000001
aF0.16666666666666666
aF0.14285714285714285
aF0.125
aF0.1111111111111111
aF0.10000000000000001
aF0.090909090909090912
aF0.083333333333333329
aF0.076923076923076927
aF0.071428571428571425
aF0.066666666666666666
aF0.0625
aF0.058823529411764705
aF0.055555555555555552
aF0.052631578947368418
asS'x11'
p48
(lp49
F1
aF0.5
aF0.33333333333333331
aF0.25
aF0.20000000000000001
aF0.16666666666666666
aF0.14285714285714285
aF0.125
aF0.1111111111111111
aF0.10000000000000001
aF0.090909090909090912
aF0.083333333333333329
aF0.076923076923076927
aF0.071428571428571425
aF0.066666666666666666
aF0.0625
aF0.058823529411764705
aF0.055555555555555552
aF0.052631578947368418
asS'x12'
p50
(lp51
F1
aF0.5
aF0.33333333333333331
aF0.25
aF0.20000000000000001
aF0.16666666666666666
aF0.14285714285714285
aF0.125
aF0.1111111111111111
aF0.10000000000000001
aF0.090909090909090912
aF0.083333333333333329
aF0.076923076923076927
aF0.071428571428571425
aF0.066666666666666666
aF0.0625
aF0.058823529411764705
aF0.055555555555555552
aF0.052631578947368418
asS'x13'
p52
(lp53
F1
aF0.5
aF0.33333333333333331
aF0.25
aF0.20000000000000001
aF0.16666666666666666
aF0.14285714285714285
aF0.125
aF0.1111111111111111
aF0.10000000000000001
aF0.090909090909090912
aF0.083333333333333329
aF0.076923076923076927
aF0.071428571428571425
aF0.066666666666666666
aF0.0625
aF0.058823529411764705
aF0.055555555555555552
aF0.052631578947368418
asS'x14'
p54
(lp55
F1
aF0.5
aF0.33333333333333331
aF0.25
aF0.20000000000000001
aF0.16666666666666666
aF0.14285714285714285
aF0.125
aF0.1111111111111111
aF0.10000000000000001
aF0.090909090909090912
aF0.083333333333333329
aF0.076923076923076927
aF0.071428571428571425
aF0.066666666666666666
aF0.0625
aF0.058823529411764705
aF0.055555555555555552
aF0.052631578947368418
asS'x15'
p56
(lp57
F1
aF0.5
aF0.33333333333333331
aF0.25
aF0.20000000000000001
aF0.16666666666666666
aF0.14285714285714285
aF0.125
aF0.1111111111111111
aF0.10000000000000001
aF0.090909090909090912
aF0.083333333333333329
aF0.076923076923076927
aF0.071428571428571425
aF0.066666666666666666
aF0.0625
aF0.058823529411764705
aF0.055555555555555552
aF0.052631578947368418
asS'x16'
p58
(lp59
F1
aF0.5
aF0.33333333333333331
aF0.25
aF0.20000000000000001
aF0.16666666666666666
aF0.14285714285714285
aF0.125
aF0.1111111111111111
aF0.10000000000000001
aF0.090909090909090912
aF0.083333333333333329
aF0.076923076923076927
aF0.071428571428571425
aF0.066666666666666666
aF0.0625
aF0.058823529411764705
aF0.055555555555555552
aF0.052631578947368418
asS'x17'
p60
(lp61
F1
aF0.5
aF0.33333333333333331
aF0.25
aF0.20000000000000001
aF0.16666666666666666
aF0.14285714285714285
aF0.125
aF0.1111111111111111
aF0.10000000000000001
aF0.090909090909090912
aF0.083333333333333329
aF0.076923076923076927
aF0.071428571428571425
aF0.066666666666666666
aF0.0625
aF0.058823529411764705
aF0.055555555555555552
aF0.052631578947368418
as.